ARM GAS  /tmp/ccyuLr3x.s 			page 1


   1              		.syntax unified
   2              		.cpu cortex-m3
   3              		.fpu softvfp
   4              		.eabi_attribute 23, 1
   5              		.eabi_attribute 24, 1
   6              		.eabi_attribute 25, 1
   7              		.eabi_attribute 26, 1
   8              		.eabi_attribute 30, 1
   9              		.eabi_attribute 34, 1
  10              		.eabi_attribute 18, 4
  11              		.thumb
  12              		.file	"gd32f1x0_gpio.c"
  13              		.text
  14              	.Ltext0:
  15              		.cfi_sections	.debug_frame
  16              		.section	.text.GPIO_DeInit,"ax",%progbits
  17              		.align	2
  18              		.global	GPIO_DeInit
  19              		.thumb
  20              		.thumb_func
  22              	GPIO_DeInit:
  23              	.LFB29:
  24              		.file 1 "Peripherals/src/gd32f1x0_gpio.c"
   1:Peripherals/src/gd32f1x0_gpio.c **** /**
   2:Peripherals/src/gd32f1x0_gpio.c ****   ******************************************************************************
   3:Peripherals/src/gd32f1x0_gpio.c ****   * @file    gd32f1x0_gpio.c
   4:Peripherals/src/gd32f1x0_gpio.c ****   * @author  MCU SD
   5:Peripherals/src/gd32f1x0_gpio.c ****   * @version V1.0.1
   6:Peripherals/src/gd32f1x0_gpio.c ****   * @date    6-Sep-2014
   7:Peripherals/src/gd32f1x0_gpio.c ****   * @brief   GPIO functions of the firmware library.
   8:Peripherals/src/gd32f1x0_gpio.c ****   ******************************************************************************
   9:Peripherals/src/gd32f1x0_gpio.c ****   */
  10:Peripherals/src/gd32f1x0_gpio.c **** 
  11:Peripherals/src/gd32f1x0_gpio.c **** /* Includes ------------------------------------------------------------------*/
  12:Peripherals/src/gd32f1x0_gpio.c **** #include "gd32f1x0_gpio.h"
  13:Peripherals/src/gd32f1x0_gpio.c **** #include "gd32f1x0_rcc.h"
  14:Peripherals/src/gd32f1x0_gpio.c **** 
  15:Peripherals/src/gd32f1x0_gpio.c **** /** @addtogroup GD32F1x0_Firmware
  16:Peripherals/src/gd32f1x0_gpio.c ****   * @{
  17:Peripherals/src/gd32f1x0_gpio.c ****   */
  18:Peripherals/src/gd32f1x0_gpio.c **** 
  19:Peripherals/src/gd32f1x0_gpio.c **** /** @defgroup GPIO 
  20:Peripherals/src/gd32f1x0_gpio.c ****   * @brief GPIO driver modules
  21:Peripherals/src/gd32f1x0_gpio.c ****   * @{
  22:Peripherals/src/gd32f1x0_gpio.c ****   */
  23:Peripherals/src/gd32f1x0_gpio.c **** 
  24:Peripherals/src/gd32f1x0_gpio.c **** /** @defgroup GPIO_Private_Functions 
  25:Peripherals/src/gd32f1x0_gpio.c ****   * @{
  26:Peripherals/src/gd32f1x0_gpio.c ****   */
  27:Peripherals/src/gd32f1x0_gpio.c **** 
  28:Peripherals/src/gd32f1x0_gpio.c **** /**
  29:Peripherals/src/gd32f1x0_gpio.c ****   * @brief  Reset the GPIOx peripheral.
  30:Peripherals/src/gd32f1x0_gpio.c ****   * @param  GPIOx: where x can be (A..F) to select the GPIO peripheral.
  31:Peripherals/src/gd32f1x0_gpio.c ****   * @retval None
  32:Peripherals/src/gd32f1x0_gpio.c ****   */
  33:Peripherals/src/gd32f1x0_gpio.c **** void GPIO_DeInit(GPIO_TypeDef* GPIOx)
  34:Peripherals/src/gd32f1x0_gpio.c **** {
ARM GAS  /tmp/ccyuLr3x.s 			page 2


  25              		.loc 1 34 0
  26              		.cfi_startproc
  27              		@ args = 0, pretend = 0, frame = 0
  28              		@ frame_needed = 0, uses_anonymous_args = 0
  29              	.LVL0:
  30 0000 08B5     		push	{r3, lr}
  31              	.LCFI0:
  32              		.cfi_def_cfa_offset 8
  33              		.cfi_offset 3, -8
  34              		.cfi_offset 14, -4
  35:Peripherals/src/gd32f1x0_gpio.c ****     if(GPIOx == GPIOA)
  35              		.loc 1 35 0
  36 0002 B0F1904F 		cmp	r0, #1207959552
  37 0006 0AD1     		bne	.L2
  36:Peripherals/src/gd32f1x0_gpio.c ****     {
  37:Peripherals/src/gd32f1x0_gpio.c ****         RCC_AHBPeriphReset_Enable(RCC_AHBPERIPH_GPIOARST, ENABLE);
  38              		.loc 1 37 0
  39 0008 4FF40030 		mov	r0, #131072
  40              	.LVL1:
  41 000c 0121     		movs	r1, #1
  42 000e FFF7FEFF 		bl	RCC_AHBPeriphReset_Enable
  43              	.LVL2:
  38:Peripherals/src/gd32f1x0_gpio.c ****         RCC_AHBPeriphReset_Enable(RCC_AHBPERIPH_GPIOARST, DISABLE);
  44              		.loc 1 38 0
  45 0012 4FF40030 		mov	r0, #131072
  46 0016 0021     		movs	r1, #0
  47 0018 FFF7FEFF 		bl	RCC_AHBPeriphReset_Enable
  48              	.LVL3:
  49 001c 08BD     		pop	{r3, pc}
  50              	.LVL4:
  51              	.L2:
  39:Peripherals/src/gd32f1x0_gpio.c ****     }
  40:Peripherals/src/gd32f1x0_gpio.c ****     else if(GPIOx == GPIOB)
  52              		.loc 1 40 0
  53 001e 1C4B     		ldr	r3, .L7
  54 0020 9842     		cmp	r0, r3
  55 0022 0AD1     		bne	.L4
  41:Peripherals/src/gd32f1x0_gpio.c ****     {
  42:Peripherals/src/gd32f1x0_gpio.c ****         RCC_AHBPeriphReset_Enable(RCC_AHBPERIPH_GPIOBRST, ENABLE);
  56              		.loc 1 42 0
  57 0024 4FF48020 		mov	r0, #262144
  58              	.LVL5:
  59 0028 0121     		movs	r1, #1
  60 002a FFF7FEFF 		bl	RCC_AHBPeriphReset_Enable
  61              	.LVL6:
  43:Peripherals/src/gd32f1x0_gpio.c ****         RCC_AHBPeriphReset_Enable(RCC_AHBPERIPH_GPIOBRST, DISABLE);
  62              		.loc 1 43 0
  63 002e 4FF48020 		mov	r0, #262144
  64 0032 0021     		movs	r1, #0
  65 0034 FFF7FEFF 		bl	RCC_AHBPeriphReset_Enable
  66              	.LVL7:
  67 0038 08BD     		pop	{r3, pc}
  68              	.LVL8:
  69              	.L4:
  44:Peripherals/src/gd32f1x0_gpio.c ****     }
  45:Peripherals/src/gd32f1x0_gpio.c ****     else if(GPIOx == GPIOC)
  70              		.loc 1 45 0
ARM GAS  /tmp/ccyuLr3x.s 			page 3


  71 003a 164B     		ldr	r3, .L7+4
  72 003c 9842     		cmp	r0, r3
  73 003e 0AD1     		bne	.L5
  46:Peripherals/src/gd32f1x0_gpio.c ****     {
  47:Peripherals/src/gd32f1x0_gpio.c ****         RCC_AHBPeriphReset_Enable(RCC_AHBPERIPH_GPIOCRST, ENABLE);
  74              		.loc 1 47 0
  75 0040 4FF40020 		mov	r0, #524288
  76              	.LVL9:
  77 0044 0121     		movs	r1, #1
  78 0046 FFF7FEFF 		bl	RCC_AHBPeriphReset_Enable
  79              	.LVL10:
  48:Peripherals/src/gd32f1x0_gpio.c ****         RCC_AHBPeriphReset_Enable(RCC_AHBPERIPH_GPIOCRST, DISABLE);
  80              		.loc 1 48 0
  81 004a 4FF40020 		mov	r0, #524288
  82 004e 0021     		movs	r1, #0
  83 0050 FFF7FEFF 		bl	RCC_AHBPeriphReset_Enable
  84              	.LVL11:
  85 0054 08BD     		pop	{r3, pc}
  86              	.LVL12:
  87              	.L5:
  49:Peripherals/src/gd32f1x0_gpio.c ****     }
  50:Peripherals/src/gd32f1x0_gpio.c ****     else if(GPIOx == GPIOD)
  88              		.loc 1 50 0
  89 0056 104B     		ldr	r3, .L7+8
  90 0058 9842     		cmp	r0, r3
  91 005a 0AD1     		bne	.L6
  51:Peripherals/src/gd32f1x0_gpio.c ****     {
  52:Peripherals/src/gd32f1x0_gpio.c ****         RCC_AHBPeriphReset_Enable(RCC_AHBPERIPH_GPIODRST, ENABLE);
  92              		.loc 1 52 0
  93 005c 4FF48030 		mov	r0, #65536
  94              	.LVL13:
  95 0060 0121     		movs	r1, #1
  96 0062 FFF7FEFF 		bl	RCC_AHBPeriphReset_Enable
  97              	.LVL14:
  53:Peripherals/src/gd32f1x0_gpio.c ****         RCC_AHBPeriphReset_Enable(RCC_AHBPERIPH_GPIODRST, DISABLE);
  98              		.loc 1 53 0
  99 0066 4FF48030 		mov	r0, #65536
 100 006a 0021     		movs	r1, #0
 101 006c FFF7FEFF 		bl	RCC_AHBPeriphReset_Enable
 102              	.LVL15:
 103 0070 08BD     		pop	{r3, pc}
 104              	.LVL16:
 105              	.L6:
  54:Peripherals/src/gd32f1x0_gpio.c ****     }
  55:Peripherals/src/gd32f1x0_gpio.c ****     else if(GPIOx == GPIOF)
 106              		.loc 1 55 0
 107 0072 0A4B     		ldr	r3, .L7+12
 108 0074 9842     		cmp	r0, r3
 109 0076 09D1     		bne	.L1
  56:Peripherals/src/gd32f1x0_gpio.c ****     {
  57:Peripherals/src/gd32f1x0_gpio.c ****         RCC_AHBPeriphReset_Enable(RCC_AHBPERIPH_GPIOFRST, ENABLE);
 110              		.loc 1 57 0
 111 0078 4FF48020 		mov	r0, #262144
 112              	.LVL17:
 113 007c 0121     		movs	r1, #1
 114 007e FFF7FEFF 		bl	RCC_AHBPeriphReset_Enable
 115              	.LVL18:
ARM GAS  /tmp/ccyuLr3x.s 			page 4


  58:Peripherals/src/gd32f1x0_gpio.c ****         RCC_AHBPeriphReset_Enable(RCC_AHBPERIPH_GPIOFRST, DISABLE);
 116              		.loc 1 58 0
 117 0082 4FF48020 		mov	r0, #262144
 118 0086 0021     		movs	r1, #0
 119 0088 FFF7FEFF 		bl	RCC_AHBPeriphReset_Enable
 120              	.LVL19:
 121              	.L1:
 122 008c 08BD     		pop	{r3, pc}
 123              	.L8:
 124 008e 00BF     		.align	2
 125              	.L7:
 126 0090 00040048 		.word	1207960576
 127 0094 00080048 		.word	1207961600
 128 0098 000C0048 		.word	1207962624
 129 009c 00140048 		.word	1207964672
 130              		.cfi_endproc
 131              	.LFE29:
 133              		.section	.text.GPIO_Init,"ax",%progbits
 134              		.align	2
 135              		.global	GPIO_Init
 136              		.thumb
 137              		.thumb_func
 139              	GPIO_Init:
 140              	.LFB30:
  59:Peripherals/src/gd32f1x0_gpio.c ****     }
  60:Peripherals/src/gd32f1x0_gpio.c **** }
  61:Peripherals/src/gd32f1x0_gpio.c **** 
  62:Peripherals/src/gd32f1x0_gpio.c **** /**
  63:Peripherals/src/gd32f1x0_gpio.c ****   * @brief  Initialize the GPIOx peripheral.
  64:Peripherals/src/gd32f1x0_gpio.c ****   * @param  GPIOx: where x can be (A..F) to select the GPIO peripheral.
  65:Peripherals/src/gd32f1x0_gpio.c ****   * @param  GPIO_InitParaStruct: The structuer contains configuration information.
  66:Peripherals/src/gd32f1x0_gpio.c ****   * @retval None
  67:Peripherals/src/gd32f1x0_gpio.c ****   */
  68:Peripherals/src/gd32f1x0_gpio.c **** void GPIO_Init(GPIO_TypeDef* GPIOx, GPIO_InitPara* GPIO_InitParaStruct)
  69:Peripherals/src/gd32f1x0_gpio.c **** {
 141              		.loc 1 69 0
 142              		.cfi_startproc
 143              		@ args = 0, pretend = 0, frame = 0
 144              		@ frame_needed = 0, uses_anonymous_args = 0
 145              		@ link register save eliminated.
 146              	.LVL20:
 147 0000 F0B4     		push	{r4, r5, r6, r7}
 148              	.LCFI1:
 149              		.cfi_def_cfa_offset 16
 150              		.cfi_offset 4, -16
 151              		.cfi_offset 5, -12
 152              		.cfi_offset 6, -8
 153              		.cfi_offset 7, -4
 154              	.LVL21:
  70:Peripherals/src/gd32f1x0_gpio.c ****     uint32_t pin = 0x00;
  71:Peripherals/src/gd32f1x0_gpio.c **** 
  72:Peripherals/src/gd32f1x0_gpio.c ****     for (pin = 0x00; pin < 0x10; pin++)
 155              		.loc 1 72 0
 156 0002 0023     		movs	r3, #0
  73:Peripherals/src/gd32f1x0_gpio.c ****     {
  74:Peripherals/src/gd32f1x0_gpio.c ****         if(((GPIO_InitParaStruct->GPIO_Pin) & (((uint32_t)0x01) << pin))!=0)
  75:Peripherals/src/gd32f1x0_gpio.c ****         {
ARM GAS  /tmp/ccyuLr3x.s 			page 5


  76:Peripherals/src/gd32f1x0_gpio.c ****             if ((GPIO_InitParaStruct->GPIO_Mode == GPIO_MODE_OUT) || (GPIO_InitParaStruct->GPIO_Mod
  77:Peripherals/src/gd32f1x0_gpio.c ****             {
  78:Peripherals/src/gd32f1x0_gpio.c ****                 /* Speed configuration */
  79:Peripherals/src/gd32f1x0_gpio.c ****                 GPIOx->OSPD &= ~(GPIO_OSPD_OSPD0 << (pin * 2));
  80:Peripherals/src/gd32f1x0_gpio.c ****                 GPIOx->OSPD |= ((uint32_t)(GPIO_InitParaStruct->GPIO_Speed) << (pin * 2));
  81:Peripherals/src/gd32f1x0_gpio.c **** 
  82:Peripherals/src/gd32f1x0_gpio.c ****                 /* Output type configuration */
  83:Peripherals/src/gd32f1x0_gpio.c ****                 GPIOx->OMODE &= ~((GPIO_OMODE_OM0) << ((uint16_t)pin));
  84:Peripherals/src/gd32f1x0_gpio.c ****                 GPIOx->OMODE |= (uint16_t)(((uint16_t)GPIO_InitParaStruct->GPIO_OType) << ((uint16_
  85:Peripherals/src/gd32f1x0_gpio.c ****             }
  86:Peripherals/src/gd32f1x0_gpio.c **** 
  87:Peripherals/src/gd32f1x0_gpio.c ****             /* Pull-up Pull-down configuration */
  88:Peripherals/src/gd32f1x0_gpio.c ****             GPIOx->PUPD &= ~(GPIO_PUPD_PUPD0 << ((uint16_t)pin * 2));
 157              		.loc 1 88 0
 158 0004 0324     		movs	r4, #3
  83:Peripherals/src/gd32f1x0_gpio.c ****                 GPIOx->OMODE &= ~((GPIO_OMODE_OM0) << ((uint16_t)pin));
 159              		.loc 1 83 0
 160 0006 0127     		movs	r7, #1
  72:Peripherals/src/gd32f1x0_gpio.c ****     for (pin = 0x00; pin < 0x10; pin++)
 161              		.loc 1 72 0
 162 0008 40E0     		b	.L10
 163              	.LVL22:
 164              	.L13:
  74:Peripherals/src/gd32f1x0_gpio.c ****         if(((GPIO_InitParaStruct->GPIO_Pin) & (((uint32_t)0x01) << pin))!=0)
 165              		.loc 1 74 0
 166 000a 0A68     		ldr	r2, [r1]
 167 000c DA40     		lsrs	r2, r2, r3
 168 000e 12F0010F 		tst	r2, #1
 169 0012 3AD0     		beq	.L11
  76:Peripherals/src/gd32f1x0_gpio.c ****             if ((GPIO_InitParaStruct->GPIO_Mode == GPIO_MODE_OUT) || (GPIO_InitParaStruct->GPIO_Mod
 170              		.loc 1 76 0
 171 0014 0A79     		ldrb	r2, [r1, #4]	@ zero_extendqisi2
 172 0016 013A     		subs	r2, r2, #1
 173 0018 D2B2     		uxtb	r2, r2
 174 001a 012A     		cmp	r2, #1
 175 001c 1BD8     		bhi	.L12
  79:Peripherals/src/gd32f1x0_gpio.c ****                 GPIOx->OSPD &= ~(GPIO_OSPD_OSPD0 << (pin * 2));
 176              		.loc 1 79 0
 177 001e 8568     		ldr	r5, [r0, #8]
 178 0020 5A00     		lsls	r2, r3, #1
 179 0022 04FA02F6 		lsl	r6, r4, r2
 180 0026 25EA0605 		bic	r5, r5, r6
 181 002a 8560     		str	r5, [r0, #8]
  80:Peripherals/src/gd32f1x0_gpio.c ****                 GPIOx->OSPD |= ((uint32_t)(GPIO_InitParaStruct->GPIO_Speed) << (pin * 2));
 182              		.loc 1 80 0
 183 002c 8568     		ldr	r5, [r0, #8]
 184 002e 4E79     		ldrb	r6, [r1, #5]	@ zero_extendqisi2
 185 0030 06FA02F2 		lsl	r2, r6, r2
 186 0034 2A43     		orrs	r2, r2, r5
 187 0036 8260     		str	r2, [r0, #8]
  83:Peripherals/src/gd32f1x0_gpio.c ****                 GPIOx->OMODE &= ~((GPIO_OMODE_OM0) << ((uint16_t)pin));
 188              		.loc 1 83 0
 189 0038 8588     		ldrh	r5, [r0, #4]
 190 003a ADB2     		uxth	r5, r5
 191 003c 9AB2     		uxth	r2, r3
 192 003e 07FA02F6 		lsl	r6, r7, r2
 193 0042 25EA0605 		bic	r5, r5, r6
ARM GAS  /tmp/ccyuLr3x.s 			page 6


 194 0046 8580     		strh	r5, [r0, #4]	@ movhi
  84:Peripherals/src/gd32f1x0_gpio.c ****                 GPIOx->OMODE |= (uint16_t)(((uint16_t)GPIO_InitParaStruct->GPIO_OType) << ((uint16_
 195              		.loc 1 84 0
 196 0048 8588     		ldrh	r5, [r0, #4]
 197 004a 8E79     		ldrb	r6, [r1, #6]	@ zero_extendqisi2
 198 004c 06FA02F2 		lsl	r2, r6, r2
 199 0050 2A43     		orrs	r2, r2, r5
 200 0052 92B2     		uxth	r2, r2
 201 0054 8280     		strh	r2, [r0, #4]	@ movhi
 202              	.L12:
 203              		.loc 1 88 0
 204 0056 C568     		ldr	r5, [r0, #12]
 205 0058 9AB2     		uxth	r2, r3
 206 005a 5200     		lsls	r2, r2, #1
 207 005c 04FA02F2 		lsl	r2, r4, r2
 208 0060 25EA0202 		bic	r2, r5, r2
 209 0064 C260     		str	r2, [r0, #12]
  89:Peripherals/src/gd32f1x0_gpio.c ****             GPIOx->PUPD |= (((uint32_t)GPIO_InitParaStruct->GPIO_PuPd) << (pin * 2));
 210              		.loc 1 89 0
 211 0066 C668     		ldr	r6, [r0, #12]
 212 0068 CD79     		ldrb	r5, [r1, #7]	@ zero_extendqisi2
 213 006a 5A00     		lsls	r2, r3, #1
 214 006c 9540     		lsls	r5, r5, r2
 215 006e 3543     		orrs	r5, r5, r6
 216 0070 C560     		str	r5, [r0, #12]
  90:Peripherals/src/gd32f1x0_gpio.c ****             
  91:Peripherals/src/gd32f1x0_gpio.c ****             /* GPIO mode configuration */
  92:Peripherals/src/gd32f1x0_gpio.c ****             GPIOx->CTLR  &= ~(GPIO_CTLR_CTLR0 << (pin * 2));
 217              		.loc 1 92 0
 218 0072 0568     		ldr	r5, [r0]
 219 0074 04FA02F6 		lsl	r6, r4, r2
 220 0078 25EA0605 		bic	r5, r5, r6
 221 007c 0560     		str	r5, [r0]
  93:Peripherals/src/gd32f1x0_gpio.c ****             GPIOx->CTLR |= (((uint32_t)GPIO_InitParaStruct->GPIO_Mode) << (pin * 2));
 222              		.loc 1 93 0
 223 007e 0568     		ldr	r5, [r0]
 224 0080 0E79     		ldrb	r6, [r1, #4]	@ zero_extendqisi2
 225 0082 06FA02F2 		lsl	r2, r6, r2
 226 0086 2A43     		orrs	r2, r2, r5
 227 0088 0260     		str	r2, [r0]
 228              	.L11:
  72:Peripherals/src/gd32f1x0_gpio.c ****     for (pin = 0x00; pin < 0x10; pin++)
 229              		.loc 1 72 0
 230 008a 0133     		adds	r3, r3, #1
 231              	.LVL23:
 232              	.L10:
  72:Peripherals/src/gd32f1x0_gpio.c ****     for (pin = 0x00; pin < 0x10; pin++)
 233              		.loc 1 72 0 is_stmt 0 discriminator 1
 234 008c 0F2B     		cmp	r3, #15
 235 008e BCD9     		bls	.L13
  94:Peripherals/src/gd32f1x0_gpio.c ****         }
  95:Peripherals/src/gd32f1x0_gpio.c ****     }
  96:Peripherals/src/gd32f1x0_gpio.c **** }
 236              		.loc 1 96 0 is_stmt 1
 237 0090 F0BC     		pop	{r4, r5, r6, r7}
 238 0092 7047     		bx	lr
 239              		.cfi_endproc
ARM GAS  /tmp/ccyuLr3x.s 			page 7


 240              	.LFE30:
 242              		.section	.text.GPIO_ParaInit,"ax",%progbits
 243              		.align	2
 244              		.global	GPIO_ParaInit
 245              		.thumb
 246              		.thumb_func
 248              	GPIO_ParaInit:
 249              	.LFB31:
  97:Peripherals/src/gd32f1x0_gpio.c **** 
  98:Peripherals/src/gd32f1x0_gpio.c **** /**
  99:Peripherals/src/gd32f1x0_gpio.c ****   * @brief  Initial GPIO_InitParameter members.
 100:Peripherals/src/gd32f1x0_gpio.c ****   * @param  GPIO_InitParaStruct : pointer to a GPIO_InitPara structure.
 101:Peripherals/src/gd32f1x0_gpio.c ****   * @retval None
 102:Peripherals/src/gd32f1x0_gpio.c ****   */
 103:Peripherals/src/gd32f1x0_gpio.c **** void GPIO_ParaInit(GPIO_InitPara* GPIO_InitParaStruct)
 104:Peripherals/src/gd32f1x0_gpio.c **** {
 250              		.loc 1 104 0
 251              		.cfi_startproc
 252              		@ args = 0, pretend = 0, frame = 0
 253              		@ frame_needed = 0, uses_anonymous_args = 0
 254              		@ link register save eliminated.
 255              	.LVL24:
 105:Peripherals/src/gd32f1x0_gpio.c ****     /* Reset GPIO init structure parameters values */
 106:Peripherals/src/gd32f1x0_gpio.c ****     GPIO_InitParaStruct->GPIO_Pin   = GPIO_PIN_ALL;
 256              		.loc 1 106 0
 257 0000 4FF6FF73 		movw	r3, #65535
 258 0004 0360     		str	r3, [r0]
 107:Peripherals/src/gd32f1x0_gpio.c ****     GPIO_InitParaStruct->GPIO_Mode  = GPIO_MODE_IN;
 259              		.loc 1 107 0
 260 0006 0023     		movs	r3, #0
 261 0008 0371     		strb	r3, [r0, #4]
 108:Peripherals/src/gd32f1x0_gpio.c ****     GPIO_InitParaStruct->GPIO_Speed = GPIO_SPEED_2MHZ;
 262              		.loc 1 108 0
 263 000a 0222     		movs	r2, #2
 264 000c 4271     		strb	r2, [r0, #5]
 109:Peripherals/src/gd32f1x0_gpio.c ****     GPIO_InitParaStruct->GPIO_OType = GPIO_OTYPE_PP;
 265              		.loc 1 109 0
 266 000e 8371     		strb	r3, [r0, #6]
 110:Peripherals/src/gd32f1x0_gpio.c ****     GPIO_InitParaStruct->GPIO_PuPd  = GPIO_PUPD_NOPULL;
 267              		.loc 1 110 0
 268 0010 C371     		strb	r3, [r0, #7]
 269 0012 7047     		bx	lr
 270              		.cfi_endproc
 271              	.LFE31:
 273              		.section	.text.GPIO_PinLock,"ax",%progbits
 274              		.align	2
 275              		.global	GPIO_PinLock
 276              		.thumb
 277              		.thumb_func
 279              	GPIO_PinLock:
 280              	.LFB32:
 111:Peripherals/src/gd32f1x0_gpio.c **** }
 112:Peripherals/src/gd32f1x0_gpio.c **** 
 113:Peripherals/src/gd32f1x0_gpio.c **** /**
 114:Peripherals/src/gd32f1x0_gpio.c ****   * @brief  Lock GPIO Pins configuration.
 115:Peripherals/src/gd32f1x0_gpio.c ****   * @param  GPIOx: where x can be (A..F) to select the GPIO peripheral.
 116:Peripherals/src/gd32f1x0_gpio.c ****   * @param  GPIO_Pin: where pin can be (GPIO_PIN_0..GPIO_PIN_15) to select the GPIO peripheral.
ARM GAS  /tmp/ccyuLr3x.s 			page 8


 117:Peripherals/src/gd32f1x0_gpio.c ****   * @retval None
 118:Peripherals/src/gd32f1x0_gpio.c ****   */
 119:Peripherals/src/gd32f1x0_gpio.c **** void GPIO_PinLock(GPIO_TypeDef* GPIOx, uint16_t GPIO_Pin)
 120:Peripherals/src/gd32f1x0_gpio.c **** {
 281              		.loc 1 120 0
 282              		.cfi_startproc
 283              		@ args = 0, pretend = 0, frame = 8
 284              		@ frame_needed = 0, uses_anonymous_args = 0
 285              		@ link register save eliminated.
 286              	.LVL25:
 287 0000 82B0     		sub	sp, sp, #8
 288              	.LCFI2:
 289              		.cfi_def_cfa_offset 8
 121:Peripherals/src/gd32f1x0_gpio.c ****     __IO uint32_t temp_lock = 0x00010000;
 290              		.loc 1 121 0
 291 0002 4FF48033 		mov	r3, #65536
 292 0006 0193     		str	r3, [sp, #4]
 122:Peripherals/src/gd32f1x0_gpio.c **** 
 123:Peripherals/src/gd32f1x0_gpio.c ****     temp_lock |= GPIO_Pin;
 293              		.loc 1 123 0
 294 0008 019B     		ldr	r3, [sp, #4]
 295 000a 0B43     		orrs	r3, r3, r1
 296 000c 0193     		str	r3, [sp, #4]
 124:Peripherals/src/gd32f1x0_gpio.c ****     /* Lock key writing sequence*/
 125:Peripherals/src/gd32f1x0_gpio.c ****     GPIOx->LOCKR = temp_lock;
 297              		.loc 1 125 0
 298 000e 019B     		ldr	r3, [sp, #4]
 299 0010 C361     		str	r3, [r0, #28]
 126:Peripherals/src/gd32f1x0_gpio.c ****     GPIOx->LOCKR =  GPIO_Pin;
 300              		.loc 1 126 0
 301 0012 C161     		str	r1, [r0, #28]
 127:Peripherals/src/gd32f1x0_gpio.c ****     GPIOx->LOCKR = temp_lock;
 302              		.loc 1 127 0
 303 0014 019B     		ldr	r3, [sp, #4]
 304 0016 C361     		str	r3, [r0, #28]
 128:Peripherals/src/gd32f1x0_gpio.c ****     temp_lock = GPIOx->LOCKR;
 305              		.loc 1 128 0
 306 0018 C369     		ldr	r3, [r0, #28]
 307 001a 0193     		str	r3, [sp, #4]
 129:Peripherals/src/gd32f1x0_gpio.c ****     temp_lock = GPIOx->LOCKR;
 308              		.loc 1 129 0
 309 001c C369     		ldr	r3, [r0, #28]
 310 001e 0193     		str	r3, [sp, #4]
 130:Peripherals/src/gd32f1x0_gpio.c **** }
 311              		.loc 1 130 0
 312 0020 02B0     		add	sp, sp, #8
 313              		@ sp needed
 314 0022 7047     		bx	lr
 315              		.cfi_endproc
 316              	.LFE32:
 318              		.section	.text.GPIO_ReadInputBit,"ax",%progbits
 319              		.align	2
 320              		.global	GPIO_ReadInputBit
 321              		.thumb
 322              		.thumb_func
 324              	GPIO_ReadInputBit:
 325              	.LFB33:
ARM GAS  /tmp/ccyuLr3x.s 			page 9


 131:Peripherals/src/gd32f1x0_gpio.c **** 
 132:Peripherals/src/gd32f1x0_gpio.c **** /**
 133:Peripherals/src/gd32f1x0_gpio.c ****   * @brief  Read the select input port.
 134:Peripherals/src/gd32f1x0_gpio.c ****   * @param  GPIOx: where x can be (A..F) to select the GPIO peripheral.
 135:Peripherals/src/gd32f1x0_gpio.c ****   * @param  GPIO_Pin: where pin can be (GPIO_PIN_0..GPIO_PIN_15) to select the GPIO peripheral.
 136:Peripherals/src/gd32f1x0_gpio.c ****   * @retval The input port pin value.
 137:Peripherals/src/gd32f1x0_gpio.c ****   */
 138:Peripherals/src/gd32f1x0_gpio.c **** uint8_t GPIO_ReadInputBit(GPIO_TypeDef* GPIOx, uint16_t GPIO_Pin)
 139:Peripherals/src/gd32f1x0_gpio.c **** {
 326              		.loc 1 139 0
 327              		.cfi_startproc
 328              		@ args = 0, pretend = 0, frame = 0
 329              		@ frame_needed = 0, uses_anonymous_args = 0
 330              		@ link register save eliminated.
 331              	.LVL26:
 140:Peripherals/src/gd32f1x0_gpio.c ****     if ((GPIOx->DIR & GPIO_Pin) != (uint32_t)Bit_RESET)
 332              		.loc 1 140 0
 333 0000 038A     		ldrh	r3, [r0, #16]
 334 0002 1942     		tst	r1, r3
 335 0004 01D0     		beq	.L18
 141:Peripherals/src/gd32f1x0_gpio.c ****     {
 142:Peripherals/src/gd32f1x0_gpio.c ****         return (uint8_t)Bit_SET;
 336              		.loc 1 142 0
 337 0006 0120     		movs	r0, #1
 338              	.LVL27:
 339 0008 7047     		bx	lr
 340              	.LVL28:
 341              	.L18:
 143:Peripherals/src/gd32f1x0_gpio.c ****     }
 144:Peripherals/src/gd32f1x0_gpio.c ****     else
 145:Peripherals/src/gd32f1x0_gpio.c ****     {
 146:Peripherals/src/gd32f1x0_gpio.c ****         return (uint8_t)Bit_RESET;
 342              		.loc 1 146 0
 343 000a 0020     		movs	r0, #0
 344              	.LVL29:
 147:Peripherals/src/gd32f1x0_gpio.c ****     }
 148:Peripherals/src/gd32f1x0_gpio.c **** }
 345              		.loc 1 148 0
 346 000c 7047     		bx	lr
 347              		.cfi_endproc
 348              	.LFE33:
 350 000e 00BF     		.section	.text.GPIO_ReadInputData,"ax",%progbits
 351              		.align	2
 352              		.global	GPIO_ReadInputData
 353              		.thumb
 354              		.thumb_func
 356              	GPIO_ReadInputData:
 357              	.LFB34:
 149:Peripherals/src/gd32f1x0_gpio.c **** 
 150:Peripherals/src/gd32f1x0_gpio.c **** /**
 151:Peripherals/src/gd32f1x0_gpio.c ****   * @brief  Read the select input data.
 152:Peripherals/src/gd32f1x0_gpio.c ****   * @param  GPIOx: where x can be (A..F) to select the GPIO peripheral.
 153:Peripherals/src/gd32f1x0_gpio.c ****   * @retval The input data value.
 154:Peripherals/src/gd32f1x0_gpio.c ****   */
 155:Peripherals/src/gd32f1x0_gpio.c **** uint16_t GPIO_ReadInputData(GPIO_TypeDef* GPIOx)
 156:Peripherals/src/gd32f1x0_gpio.c **** {
 358              		.loc 1 156 0
ARM GAS  /tmp/ccyuLr3x.s 			page 10


 359              		.cfi_startproc
 360              		@ args = 0, pretend = 0, frame = 0
 361              		@ frame_needed = 0, uses_anonymous_args = 0
 362              		@ link register save eliminated.
 363              	.LVL30:
 157:Peripherals/src/gd32f1x0_gpio.c ****     return ((uint16_t)GPIOx->DIR);
 364              		.loc 1 157 0
 365 0000 008A     		ldrh	r0, [r0, #16]
 366              	.LVL31:
 158:Peripherals/src/gd32f1x0_gpio.c **** }
 367              		.loc 1 158 0
 368 0002 80B2     		uxth	r0, r0
 369 0004 7047     		bx	lr
 370              		.cfi_endproc
 371              	.LFE34:
 373 0006 00BF     		.section	.text.GPIO_ReadOutputBit,"ax",%progbits
 374              		.align	2
 375              		.global	GPIO_ReadOutputBit
 376              		.thumb
 377              		.thumb_func
 379              	GPIO_ReadOutputBit:
 380              	.LFB35:
 159:Peripherals/src/gd32f1x0_gpio.c **** 
 160:Peripherals/src/gd32f1x0_gpio.c **** /**
 161:Peripherals/src/gd32f1x0_gpio.c ****   * @brief  Read the specified output data port bit.
 162:Peripherals/src/gd32f1x0_gpio.c ****   * @param  GPIOx: where x can be (A..F) to select the GPIO peripheral.
 163:Peripherals/src/gd32f1x0_gpio.c ****   * @param  GPIO_Pin: where pin can be (GPIO_PIN_0..GPIO_PIN_15) to select the GPIO peripheral.
 164:Peripherals/src/gd32f1x0_gpio.c ****   * @retval The output port pin value.
 165:Peripherals/src/gd32f1x0_gpio.c ****   */
 166:Peripherals/src/gd32f1x0_gpio.c **** uint8_t GPIO_ReadOutputBit(GPIO_TypeDef* GPIOx, uint16_t GPIO_Pin)
 167:Peripherals/src/gd32f1x0_gpio.c **** {
 381              		.loc 1 167 0
 382              		.cfi_startproc
 383              		@ args = 0, pretend = 0, frame = 0
 384              		@ frame_needed = 0, uses_anonymous_args = 0
 385              		@ link register save eliminated.
 386              	.LVL32:
 168:Peripherals/src/gd32f1x0_gpio.c ****     if ((GPIOx->DOR & GPIO_Pin) != (uint32_t)Bit_RESET)
 387              		.loc 1 168 0
 388 0000 838A     		ldrh	r3, [r0, #20]
 389 0002 1942     		tst	r1, r3
 390 0004 01D0     		beq	.L22
 169:Peripherals/src/gd32f1x0_gpio.c ****     {
 170:Peripherals/src/gd32f1x0_gpio.c ****         return (uint8_t)Bit_SET;
 391              		.loc 1 170 0
 392 0006 0120     		movs	r0, #1
 393              	.LVL33:
 394 0008 7047     		bx	lr
 395              	.LVL34:
 396              	.L22:
 171:Peripherals/src/gd32f1x0_gpio.c ****     }
 172:Peripherals/src/gd32f1x0_gpio.c ****     else
 173:Peripherals/src/gd32f1x0_gpio.c ****     {
 174:Peripherals/src/gd32f1x0_gpio.c ****         return (uint8_t)Bit_RESET;
 397              		.loc 1 174 0
 398 000a 0020     		movs	r0, #0
 399              	.LVL35:
ARM GAS  /tmp/ccyuLr3x.s 			page 11


 175:Peripherals/src/gd32f1x0_gpio.c ****     }
 176:Peripherals/src/gd32f1x0_gpio.c **** }
 400              		.loc 1 176 0
 401 000c 7047     		bx	lr
 402              		.cfi_endproc
 403              	.LFE35:
 405 000e 00BF     		.section	.text.GPIO_ReadOutputData,"ax",%progbits
 406              		.align	2
 407              		.global	GPIO_ReadOutputData
 408              		.thumb
 409              		.thumb_func
 411              	GPIO_ReadOutputData:
 412              	.LFB36:
 177:Peripherals/src/gd32f1x0_gpio.c **** 
 178:Peripherals/src/gd32f1x0_gpio.c **** /**
 179:Peripherals/src/gd32f1x0_gpio.c ****   * @brief  Read the specified GPIO output data port.
 180:Peripherals/src/gd32f1x0_gpio.c ****   * @param  GPIOx: where x can be (A..F) to select the GPIO peripheral.
 181:Peripherals/src/gd32f1x0_gpio.c ****   * @retval GPIO output data port value.
 182:Peripherals/src/gd32f1x0_gpio.c ****   */
 183:Peripherals/src/gd32f1x0_gpio.c **** uint16_t GPIO_ReadOutputData(GPIO_TypeDef* GPIOx)
 184:Peripherals/src/gd32f1x0_gpio.c **** {
 413              		.loc 1 184 0
 414              		.cfi_startproc
 415              		@ args = 0, pretend = 0, frame = 0
 416              		@ frame_needed = 0, uses_anonymous_args = 0
 417              		@ link register save eliminated.
 418              	.LVL36:
 185:Peripherals/src/gd32f1x0_gpio.c ****     return ((uint16_t)GPIOx->DOR);
 419              		.loc 1 185 0
 420 0000 808A     		ldrh	r0, [r0, #20]
 421              	.LVL37:
 186:Peripherals/src/gd32f1x0_gpio.c **** }
 422              		.loc 1 186 0
 423 0002 80B2     		uxth	r0, r0
 424 0004 7047     		bx	lr
 425              		.cfi_endproc
 426              	.LFE36:
 428 0006 00BF     		.section	.text.GPIO_SetBits,"ax",%progbits
 429              		.align	2
 430              		.global	GPIO_SetBits
 431              		.thumb
 432              		.thumb_func
 434              	GPIO_SetBits:
 435              	.LFB37:
 187:Peripherals/src/gd32f1x0_gpio.c **** 
 188:Peripherals/src/gd32f1x0_gpio.c **** /**
 189:Peripherals/src/gd32f1x0_gpio.c ****   * @brief  Set the selected data port bits.
 190:Peripherals/src/gd32f1x0_gpio.c ****   * @param  GPIOx: where x can be (A..F) to select the GPIO peripheral.
 191:Peripherals/src/gd32f1x0_gpio.c ****   * @param  GPIO_Pin: where pin can be (GPIO_PIN_0..GPIO_PIN_15) to select the GPIO peripheral.
 192:Peripherals/src/gd32f1x0_gpio.c ****   * @retval None
 193:Peripherals/src/gd32f1x0_gpio.c ****   */
 194:Peripherals/src/gd32f1x0_gpio.c **** void GPIO_SetBits(GPIO_TypeDef* GPIOx, uint16_t GPIO_Pin)
 195:Peripherals/src/gd32f1x0_gpio.c **** {
 436              		.loc 1 195 0
 437              		.cfi_startproc
 438              		@ args = 0, pretend = 0, frame = 0
 439              		@ frame_needed = 0, uses_anonymous_args = 0
ARM GAS  /tmp/ccyuLr3x.s 			page 12


 440              		@ link register save eliminated.
 441              	.LVL38:
 196:Peripherals/src/gd32f1x0_gpio.c ****     GPIOx->BOR = GPIO_Pin;
 442              		.loc 1 196 0
 443 0000 8161     		str	r1, [r0, #24]
 444 0002 7047     		bx	lr
 445              		.cfi_endproc
 446              	.LFE37:
 448              		.section	.text.GPIO_ResetBits,"ax",%progbits
 449              		.align	2
 450              		.global	GPIO_ResetBits
 451              		.thumb
 452              		.thumb_func
 454              	GPIO_ResetBits:
 455              	.LFB38:
 197:Peripherals/src/gd32f1x0_gpio.c **** }
 198:Peripherals/src/gd32f1x0_gpio.c **** 
 199:Peripherals/src/gd32f1x0_gpio.c **** /**
 200:Peripherals/src/gd32f1x0_gpio.c ****   * @brief  Clear the selected data port bits.
 201:Peripherals/src/gd32f1x0_gpio.c ****   * @param  GPIOx: where x can be (A..F) to select the GPIO peripheral.
 202:Peripherals/src/gd32f1x0_gpio.c ****   * @param  GPIO_Pin: where pin can be (GPIO_PIN_0..GPIO_PIN_15) to select the GPIO peripheral.
 203:Peripherals/src/gd32f1x0_gpio.c ****   * @retval None
 204:Peripherals/src/gd32f1x0_gpio.c ****   */
 205:Peripherals/src/gd32f1x0_gpio.c **** void GPIO_ResetBits(GPIO_TypeDef* GPIOx, uint16_t GPIO_Pin)
 206:Peripherals/src/gd32f1x0_gpio.c **** {
 456              		.loc 1 206 0
 457              		.cfi_startproc
 458              		@ args = 0, pretend = 0, frame = 0
 459              		@ frame_needed = 0, uses_anonymous_args = 0
 460              		@ link register save eliminated.
 461              	.LVL39:
 207:Peripherals/src/gd32f1x0_gpio.c ****     GPIOx->BCR = GPIO_Pin;
 462              		.loc 1 207 0
 463 0000 0185     		strh	r1, [r0, #40]	@ movhi
 464 0002 7047     		bx	lr
 465              		.cfi_endproc
 466              	.LFE38:
 468              		.section	.text.GPIO_WriteBit,"ax",%progbits
 469              		.align	2
 470              		.global	GPIO_WriteBit
 471              		.thumb
 472              		.thumb_func
 474              	GPIO_WriteBit:
 475              	.LFB39:
 208:Peripherals/src/gd32f1x0_gpio.c **** }
 209:Peripherals/src/gd32f1x0_gpio.c **** 
 210:Peripherals/src/gd32f1x0_gpio.c **** /**
 211:Peripherals/src/gd32f1x0_gpio.c ****   * @brief  Set or clear the selected data port bit.
 212:Peripherals/src/gd32f1x0_gpio.c ****   * @param  GPIOx: where x can be (A..F) to select the GPIO peripheral.
 213:Peripherals/src/gd32f1x0_gpio.c ****   * @param  GPIO_Pin: where pin can be (GPIO_PIN_0..GPIO_PIN_15) to select the GPIO peripheral.
 214:Peripherals/src/gd32f1x0_gpio.c ****   * @param  BitVal: specifies the state of the port.Select one of the follwing values :
 215:Peripherals/src/gd32f1x0_gpio.c ****   *     @arg Bit_RESET: clear the port pin
 216:Peripherals/src/gd32f1x0_gpio.c ****   *     @arg Bit_SET: set the port pin
 217:Peripherals/src/gd32f1x0_gpio.c ****   * @retval None
 218:Peripherals/src/gd32f1x0_gpio.c ****   */
 219:Peripherals/src/gd32f1x0_gpio.c **** void GPIO_WriteBit(GPIO_TypeDef* GPIOx, uint16_t GPIO_Pin, BitState BitVal)
 220:Peripherals/src/gd32f1x0_gpio.c **** {
ARM GAS  /tmp/ccyuLr3x.s 			page 13


 476              		.loc 1 220 0
 477              		.cfi_startproc
 478              		@ args = 0, pretend = 0, frame = 0
 479              		@ frame_needed = 0, uses_anonymous_args = 0
 480              		@ link register save eliminated.
 481              	.LVL40:
 221:Peripherals/src/gd32f1x0_gpio.c ****     if (BitVal != Bit_RESET)
 482              		.loc 1 221 0
 483 0000 0AB1     		cbz	r2, .L27
 222:Peripherals/src/gd32f1x0_gpio.c ****     {
 223:Peripherals/src/gd32f1x0_gpio.c ****         GPIOx->BOR = GPIO_Pin;
 484              		.loc 1 223 0
 485 0002 8161     		str	r1, [r0, #24]
 486 0004 7047     		bx	lr
 487              	.L27:
 224:Peripherals/src/gd32f1x0_gpio.c ****     }
 225:Peripherals/src/gd32f1x0_gpio.c ****     else
 226:Peripherals/src/gd32f1x0_gpio.c ****     {
 227:Peripherals/src/gd32f1x0_gpio.c ****         GPIOx->BCR = GPIO_Pin;
 488              		.loc 1 227 0
 489 0006 0185     		strh	r1, [r0, #40]	@ movhi
 490 0008 7047     		bx	lr
 491              		.cfi_endproc
 492              	.LFE39:
 494 000a 00BF     		.section	.text.GPIO_Write,"ax",%progbits
 495              		.align	2
 496              		.global	GPIO_Write
 497              		.thumb
 498              		.thumb_func
 500              	GPIO_Write:
 501              	.LFB40:
 228:Peripherals/src/gd32f1x0_gpio.c ****     }
 229:Peripherals/src/gd32f1x0_gpio.c **** }
 230:Peripherals/src/gd32f1x0_gpio.c **** 
 231:Peripherals/src/gd32f1x0_gpio.c **** /**
 232:Peripherals/src/gd32f1x0_gpio.c ****   * @brief  Write data to the specified GPIO data port.
 233:Peripherals/src/gd32f1x0_gpio.c ****   * @param  GPIOx: where x can be (A..F) to select the GPIO peripheral.
 234:Peripherals/src/gd32f1x0_gpio.c ****   * @param  PortVal: specifies the value to be written to the port output data register.
 235:Peripherals/src/gd32f1x0_gpio.c ****   * @retval None
 236:Peripherals/src/gd32f1x0_gpio.c ****   */
 237:Peripherals/src/gd32f1x0_gpio.c **** void GPIO_Write(GPIO_TypeDef* GPIOx, uint16_t PortVal)
 238:Peripherals/src/gd32f1x0_gpio.c **** {
 502              		.loc 1 238 0
 503              		.cfi_startproc
 504              		@ args = 0, pretend = 0, frame = 0
 505              		@ frame_needed = 0, uses_anonymous_args = 0
 506              		@ link register save eliminated.
 507              	.LVL41:
 239:Peripherals/src/gd32f1x0_gpio.c ****     GPIOx->DOR = PortVal;
 508              		.loc 1 239 0
 509 0000 8182     		strh	r1, [r0, #20]	@ movhi
 510 0002 7047     		bx	lr
 511              		.cfi_endproc
 512              	.LFE40:
 514              		.section	.text.GPIO_PinAFConfig,"ax",%progbits
 515              		.align	2
 516              		.global	GPIO_PinAFConfig
ARM GAS  /tmp/ccyuLr3x.s 			page 14


 517              		.thumb
 518              		.thumb_func
 520              	GPIO_PinAFConfig:
 521              	.LFB41:
 240:Peripherals/src/gd32f1x0_gpio.c **** }
 241:Peripherals/src/gd32f1x0_gpio.c **** 
 242:Peripherals/src/gd32f1x0_gpio.c **** /**
 243:Peripherals/src/gd32f1x0_gpio.c ****   * @brief  Write data to the specified GPIO data port.
 244:Peripherals/src/gd32f1x0_gpio.c ****   * @param  GPIOx: where x can be (A..F) to select the GPIO peripheral.
 245:Peripherals/src/gd32f1x0_gpio.c ****   * @param  GPIO_PinSource: This parameter can be GPIO_PINSOURCEx where x can be (0..15).
 246:Peripherals/src/gd32f1x0_gpio.c ****   * @param  GPIO_AF: selects the pin to used as Alternate function. This parameter can be GPIO_AF_x
 247:Peripherals/src/gd32f1x0_gpio.c ****              This parameter can be one of the following value:
 248:Peripherals/src/gd32f1x0_gpio.c ****   *            @arg GPIO_AF_0: EVENTOUT, TIMER15, SPI1, I2S1, TIMER17,MCO, SWDAT, SWCLK, TIMER14,
 249:Peripherals/src/gd32f1x0_gpio.c ****   *                            USART1, CEC, IR_OUT, SPI2 
 250:Peripherals/src/gd32f1x0_gpio.c ****   *            @arg GPIO_AF_1: USART1, USART2, CEC, TIMER3, IR_OUT, EVENTOUT, I2C1, I2C2, TIMER15 
 251:Peripherals/src/gd32f1x0_gpio.c ****   *            @arg GPIO_AF_2: TIMER2, TIMER1, EVENTOUT, TIMER16, TIMER17
 252:Peripherals/src/gd32f1x0_gpio.c ****   *            @arg GPIO_AF_3: TSI, I2C1, TIMER15, EVENTOUT 
 253:Peripherals/src/gd32f1x0_gpio.c ****   *            @arg GPIO_AF_4: TIMER14, I2C2, I2C1, USART2
 254:Peripherals/src/gd32f1x0_gpio.c ****   *            @arg GPIO_AF_5: TIMER16, TIMER17
 255:Peripherals/src/gd32f1x0_gpio.c ****   *            @arg GPIO_AF_6: EVENTOUT, SPI2 
 256:Peripherals/src/gd32f1x0_gpio.c ****   *            @arg GPIO_AF_7: COMP1_OUT, COMP2_OUT 
 257:Peripherals/src/gd32f1x0_gpio.c ****   * @retval None
 258:Peripherals/src/gd32f1x0_gpio.c ****   */ 
 259:Peripherals/src/gd32f1x0_gpio.c **** void GPIO_PinAFConfig(GPIO_TypeDef* GPIOx, uint16_t GPIO_PinSource, uint8_t GPIO_AF)
 260:Peripherals/src/gd32f1x0_gpio.c **** {
 522              		.loc 1 260 0
 523              		.cfi_startproc
 524              		@ args = 0, pretend = 0, frame = 0
 525              		@ frame_needed = 0, uses_anonymous_args = 0
 526              		@ link register save eliminated.
 527              	.LVL42:
 528 0000 30B4     		push	{r4, r5}
 529              	.LCFI3:
 530              		.cfi_def_cfa_offset 8
 531              		.cfi_offset 4, -8
 532              		.cfi_offset 5, -4
 533              	.LVL43:
 261:Peripherals/src/gd32f1x0_gpio.c ****     uint32_t temp = 0x00;
 262:Peripherals/src/gd32f1x0_gpio.c ****     uint32_t temp_2 = 0x00;
 263:Peripherals/src/gd32f1x0_gpio.c **** 
 264:Peripherals/src/gd32f1x0_gpio.c ****     temp = ((uint32_t)(GPIO_AF) << ((uint32_t)((uint32_t)GPIO_PinSource & (uint32_t)0x07) * 4));
 534              		.loc 1 264 0
 535 0002 01F00703 		and	r3, r1, #7
 536 0006 9B00     		lsls	r3, r3, #2
 537 0008 9A40     		lsls	r2, r2, r3
 538              	.LVL44:
 265:Peripherals/src/gd32f1x0_gpio.c ****     GPIOx->AFS[GPIO_PinSource >> 0x03] &= ~((uint32_t)0xF << ((uint32_t)((uint32_t)GPIO_PinSource &
 539              		.loc 1 265 0
 540 000a C908     		lsrs	r1, r1, #3
 541              	.LVL45:
 542 000c 0831     		adds	r1, r1, #8
 543 000e 50F82140 		ldr	r4, [r0, r1, lsl #2]
 544 0012 0F25     		movs	r5, #15
 545 0014 05FA03F3 		lsl	r3, r5, r3
 546 0018 24EA0303 		bic	r3, r4, r3
 547 001c 40F82130 		str	r3, [r0, r1, lsl #2]
 266:Peripherals/src/gd32f1x0_gpio.c ****     temp_2 = GPIOx->AFS[GPIO_PinSource >> 0x03] | temp;
ARM GAS  /tmp/ccyuLr3x.s 			page 15


 548              		.loc 1 266 0
 549 0020 50F82130 		ldr	r3, [r0, r1, lsl #2]
 550 0024 1A43     		orrs	r2, r2, r3
 551              	.LVL46:
 267:Peripherals/src/gd32f1x0_gpio.c ****     GPIOx->AFS[GPIO_PinSource >> 0x03] = temp_2;
 552              		.loc 1 267 0
 553 0026 40F82120 		str	r2, [r0, r1, lsl #2]
 268:Peripherals/src/gd32f1x0_gpio.c **** }
 554              		.loc 1 268 0
 555 002a 30BC     		pop	{r4, r5}
 556 002c 7047     		bx	lr
 557              		.cfi_endproc
 558              	.LFE41:
 560 002e 00BF     		.text
 561              	.Letext0:
 562              		.file 2 "/home/niklas/Downloads/gcc-arm-none-eabi-4_8-2014q3/arm-none-eabi/include/machine/_defaul
 563              		.file 3 "/home/niklas/Downloads/gcc-arm-none-eabi-4_8-2014q3/arm-none-eabi/include/stdint.h"
 564              		.file 4 "CMSIS/gd32f1x0.h"
 565              		.file 5 "Peripherals/inc/gd32f1x0_gpio.h"
 566              		.file 6 "CMSIS/core_cm3.h"
 567              		.file 7 "Peripherals/inc/gd32f1x0_rcc.h"
ARM GAS  /tmp/ccyuLr3x.s 			page 16

